target datalayout = "e-m:e-p270:32:32-p271:32:32-p272:64:64-i64:64-i128:128-f80:128-n8:16:32:64-S128"
target triple = "x86_64-unknown-linux-gnu"

%"class.std::complex" = type { { double, double } }

; Function Attrs: mustprogress nounwind uwtable
define linkonce_odr void @_ZNSt7complexIdEC2Edd(ptr noundef nonnull align 8 dereferenceable(16) %this, double noundef %__r, double noundef %__i) unnamed_addr #0 comdat align 2 {
entry:
  %this.addr = alloca ptr, align 8
  %__r.addr = alloca double, align 8
  %__i.addr = alloca double, align 8
  store ptr %this, ptr %this.addr, align 8, !tbaa !9
  store double %__r, ptr %__r.addr, align 8, !tbaa !3
  store double %__i, ptr %__i.addr, align 8, !tbaa !3
  %this1 = load ptr, ptr %this.addr, align 8
  %_M_value = getelementptr inbounds nuw %"class.std::complex", ptr %this1, i32 0, i32 0
  %0 = load double, ptr %__r.addr, align 8, !tbaa !3
  %1 = load double, ptr %__i.addr, align 8, !tbaa !3
  %_M_value.realp = getelementptr inbounds nuw { double, double }, ptr %_M_value, i32 0, i32 0
  %_M_value.imagp = getelementptr inbounds nuw { double, double }, ptr %_M_value, i32 0, i32 1
  store double %0, ptr %_M_value.realp, align 8
  store double %1, ptr %_M_value.imagp, align 8
  ret void
}

; Function Attrs: mustprogress uwtable
define { double, double } @_ZN8QuantLib19ExponentialIntegral2EiERKSt7complexIdE(ptr noundef nonnull align 8 dereferenceable(16) %z) #3 {
entry:
  %retval = alloca %"class.std::complex", align 8
  %z.addr = alloca ptr, align 8
  %ref.tmp = alloca %"class.std::complex", align 8
  store ptr %z, ptr %z.addr, align 8, !tbaa !9
  %0 = load ptr, ptr %z.addr, align 8, !tbaa !9
  call void @llvm.lifetime.start.p0(i64 16, ptr %ref.tmp) #13
  call void @_ZNSt7complexIdEC2Edd(ptr noundef nonnull align 8 dereferenceable(16) %ref.tmp, double noundef 0.000000e+00, double noundef 0.000000e+00)
  %call = call { double, double } @_ZN8QuantLib19ExponentialIntegral2EiERKSt7complexIdES4_(ptr noundef nonnull align 8 dereferenceable(16) %0, ptr noundef nonnull align 8 dereferenceable(16) %ref.tmp)
  %coerce.dive = getelementptr inbounds nuw %"class.std::complex", ptr %retval, i32 0, i32 0
  %1 = getelementptr inbounds nuw { double, double }, ptr %coerce.dive, i32 0, i32 0
  %2 = extractvalue { double, double } %call, 0
  store double %2, ptr %1, align 8
  %3 = getelementptr inbounds nuw { double, double }, ptr %coerce.dive, i32 0, i32 1
  %4 = extractvalue { double, double } %call, 1
  store double %4, ptr %3, align 8
  call void @llvm.lifetime.end.p0(i64 16, ptr %ref.tmp) #13
  %coerce.dive1 = getelementptr inbounds nuw %"class.std::complex", ptr %retval, i32 0, i32 0
  %5 = load { double, double }, ptr %coerce.dive1, align 8
  ret { double, double } %5
}