; Function Attrs: mustprogress uwtable
define { double, double } @_ZN8QuantLib19ExponentialIntegral2EiERKSt7complexIdE(ptr noundef nonnull align 8 dereferenceable(16) %z) local_unnamed_addr #5 {
entry:
  %ref.tmp = alloca %"class.std::complex", align 8
  call void @llvm.lifetime.start.p0(i64 16, ptr nonnull %ref.tmp) #21
  call void @llvm.memset.p0.i64(ptr noundef nonnull align 8 dereferenceable(16) %ref.tmp, i8 0, i64 16, i1 false)
  %call = call { double, double } @_ZN8QuantLib19ExponentialIntegral2EiERKSt7complexIdES4_(ptr noundef nonnull align 8 dereferenceable(16) %z, ptr noundef nonnull align 8 dereferenceable(16) %ref.tmp)
  call void @llvm.lifetime.end.p0(i64 16, ptr nonnull %ref.tmp) #21
  ret { double, double } %call
}